; Function Attrs: mustprogress uwtable
define void @_ZNK6casadi4Call14add_dependencyERNS_13CodeGeneratorE(ptr noundef nonnull align 8 dereferenceable(128) %0, ptr noundef nonnull align 8 dereferenceable(3289) %1) unnamed_addr #3 align 2 personality ptr @__gxx_personality_v0 {
  %3 = alloca %"class.std::__cxx11::basic_string", align 8
  %4 = getelementptr inbounds nuw i8, ptr %0, i64 64
  call void @_ZN6casadi13CodeGenerator14add_dependencyB5cxx11ERKNS_8FunctionE(ptr dead_on_unwind nonnull writable sret(%"class.std::__cxx11::basic_string") align 8 %3, ptr noundef nonnull align 8 dereferenceable(3289) %1, ptr noundef nonnull align 8 dereferenceable(8) %4)
  %5 = load ptr, ptr %3, align 8, !tbaa !10
  %6 = getelementptr inbounds nuw i8, ptr %3, i64 16
  %7 = icmp eq ptr %5, %6
  br i1 %7, label %_ZNKSt7__cxx1112basic_stringIcSt11char_traitsIcESaIcEE11_M_is_localEv.exit.thread.i.i, label %_ZNKSt7__cxx1112basic_stringIcSt11char_traitsIcESaIcEE11_M_is_localEv.exit.i.i

_ZNKSt7__cxx1112basic_stringIcSt11char_traitsIcESaIcEE11_M_is_localEv.exit.thread.i.i: ; preds = %2
  %8 = getelementptr inbounds nuw i8, ptr %3, i64 8
  %9 = load i64, ptr %8, align 8, !tbaa !16
  %10 = icmp ult i64 %9, 16
  call void @llvm.assume(i1 %10)
  br label %_ZNSt7__cxx1112basic_stringIcSt11char_traitsIcESaIcEED2Ev.exit

_ZNKSt7__cxx1112basic_stringIcSt11char_traitsIcESaIcEE11_M_is_localEv.exit.i.i: ; preds = %2
  %11 = load i64, ptr %6, align 8, !tbaa !17
  %12 = add i64 %11, 1
  call void @_ZdlPvm(ptr noundef %5, i64 noundef %12) #26
  br label %_ZNSt7__cxx1112basic_stringIcSt11char_traitsIcESaIcEED2Ev.exit

_ZNSt7__cxx1112basic_stringIcSt11char_traitsIcESaIcEED2Ev.exit: ; preds = %_ZNKSt7__cxx1112basic_stringIcSt11char_traitsIcESaIcEE11_M_is_localEv.exit.thread.i.i, %_ZNKSt7__cxx1112basic_stringIcSt11char_traitsIcESaIcEE11_M_is_localEv.exit.i.i
  ret void
}